target datalayout = "e-m:e-p270:32:32-p271:32:32-p272:64:64-i64:64-i128:128-f80:128-n8:16:32:64-S128"
target triple = "x86_64-pc-linux-gnu"

%struct._object = type { %union.anon, ptr }
%union.anon = type { i64 }
%struct.PyVarObject = type { %struct._object, i64 }
%struct._typeobject = type { %struct.PyVarObject, ptr, i64, i64, ptr, i64, ptr, ptr, ptr, ptr, ptr, ptr, ptr, ptr, ptr, ptr, ptr, ptr, ptr, i64, ptr, ptr, ptr, ptr, i64, ptr, ptr, ptr, ptr, ptr, ptr, ptr, ptr, ptr, i64, ptr, ptr, ptr, ptr, ptr, ptr, ptr, ptr, ptr, ptr, ptr, i32, ptr, ptr, i8, i16 }
%struct.fileio = type { %struct._object, i32, i8, i8, ptr, ptr, ptr }
%struct.Py_buffer = type { ptr, ptr, i64, i64, i32, i32, ptr, ptr, ptr, ptr, ptr }
%struct._io_state = type { i32, ptr, ptr, ptr, ptr, ptr, ptr, ptr, ptr, ptr, ptr, ptr, ptr, ptr, ptr, ptr }
%struct._heaptypeobject = type { %struct._typeobject, %struct.PyAsyncMethods, %struct.PyNumberMethods, %struct.PyMappingMethods, %struct.PySequenceMethods, %struct.PyBufferProcs, ptr, ptr, ptr, ptr, ptr, ptr, ptr, %struct._specialization_cache }
%struct.PyAsyncMethods = type { ptr, ptr, ptr, ptr }
%struct.PyNumberMethods = type { ptr, ptr, ptr, ptr, ptr, ptr, ptr, ptr, ptr, ptr, ptr, ptr, ptr, ptr, ptr, ptr, ptr, ptr, ptr, ptr, ptr, ptr, ptr, ptr, ptr, ptr, ptr, ptr, ptr, ptr, ptr, ptr, ptr, ptr, ptr, ptr }
%struct.PyMappingMethods = type { ptr, ptr, ptr }
%struct.PySequenceMethods = type { ptr, ptr, ptr, ptr, ptr, ptr, ptr, ptr, ptr, ptr }
%struct.PyBufferProcs = type { ptr, ptr }
%struct._specialization_cache = type { ptr, i32, ptr }
%struct.PyModuleObject = type { %struct._object, ptr, ptr, ptr, ptr, ptr }

@_Py_NoneStruct = external global %struct._object, align 8
@PyExc_ValueError = external global ptr, align 8
@.str.35 = private unnamed_addr constant [29 x i8] c"I/O operation on closed file\00", align 1
@.str.36 = private unnamed_addr constant [21 x i8] c"File not open for %s\00", align 1
@.str.40 = private unnamed_addr constant [8 x i8] c"writing\00", align 1

; Function Attrs: inlinehint nounwind uwtable
define internal ptr @_PyType_GetModuleState(ptr noundef %0) #3 {
  %2 = alloca ptr, align 8
  %3 = alloca ptr, align 8
  %4 = alloca ptr, align 8
  store ptr %0, ptr %2, align 8, !tbaa !19
  call void @llvm.lifetime.start.p0(i64 8, ptr %3) #9
  %5 = load ptr, ptr %2, align 8, !tbaa !19
  store ptr %5, ptr %3, align 8, !tbaa !55
  call void @llvm.lifetime.start.p0(i64 8, ptr %4) #9
  %6 = load ptr, ptr %3, align 8, !tbaa !55
  %7 = getelementptr inbounds nuw %struct._heaptypeobject, ptr %6, i32 0, i32 10
  %8 = load ptr, ptr %7, align 8, !tbaa !57
  store ptr %8, ptr %4, align 8, !tbaa !15
  %9 = load ptr, ptr %4, align 8, !tbaa !15
  %10 = getelementptr inbounds nuw %struct.PyModuleObject, ptr %9, i32 0, i32 3
  %11 = load ptr, ptr %10, align 8, !tbaa !66
  call void @llvm.lifetime.end.p0(i64 8, ptr %4) #9
  call void @llvm.lifetime.end.p0(i64 8, ptr %3) #9
  ret ptr %11
}

; Function Attrs: nounwind uwtable
define internal ptr @err_mode(ptr noundef %0, ptr noundef %1) #0 {
  %3 = alloca ptr, align 8
  %4 = alloca ptr, align 8
  store ptr %0, ptr %3, align 8, !tbaa !48
  store ptr %1, ptr %4, align 8, !tbaa !30
  %5 = load ptr, ptr %3, align 8, !tbaa !48
  %6 = getelementptr inbounds nuw %struct._io_state, ptr %5, i32 0, i32 1
  %7 = load ptr, ptr %6, align 8, !tbaa !50
  %8 = load ptr, ptr %4, align 8, !tbaa !30
  %9 = call ptr (ptr, ptr, ...) @PyErr_Format(ptr noundef %7, ptr noundef @.str.36, ptr noundef %8)
  ret ptr %9
}

; Function Attrs: inlinehint nounwind uwtable
define internal ptr @get_io_state_by_cls(ptr noundef %0) #3 {
  %2 = alloca ptr, align 8
  %3 = alloca ptr, align 8
  store ptr %0, ptr %2, align 8, !tbaa !19
  call void @llvm.lifetime.start.p0(i64 8, ptr %3) #9
  %4 = load ptr, ptr %2, align 8, !tbaa !19
  %5 = call ptr @_PyType_GetModuleState(ptr noundef %4)
  store ptr %5, ptr %3, align 8, !tbaa !15
  %6 = load ptr, ptr %3, align 8, !tbaa !15
  call void @llvm.lifetime.end.p0(i64 8, ptr %3) #9
  ret ptr %6
}

; Function Attrs: nounwind uwtable
define internal ptr @err_closed() #0 {
  %1 = load ptr, ptr @PyExc_ValueError, align 8, !tbaa !4
  call void @PyErr_SetString(ptr noundef %1, ptr noundef @.str.35)
  ret ptr null
}

; Function Attrs: nounwind uwtable
define internal ptr @_io_FileIO_write_impl(ptr noundef %0, ptr noundef %1, ptr noundef %2) #0 {
  %4 = alloca ptr, align 8
  %5 = alloca ptr, align 8
  %6 = alloca ptr, align 8
  %7 = alloca ptr, align 8
  %8 = alloca i64, align 8
  %9 = alloca i32, align 4
  %10 = alloca i32, align 4
  %11 = alloca ptr, align 8
  store ptr %0, ptr %5, align 8, !tbaa !15
  store ptr %1, ptr %6, align 8, !tbaa !19
  store ptr %2, ptr %7, align 8, !tbaa !15
  call void @llvm.lifetime.start.p0(i64 8, ptr %8) #9
  call void @llvm.lifetime.start.p0(i64 4, ptr %9) #9
  %12 = load ptr, ptr %5, align 8, !tbaa !15
  %13 = getelementptr inbounds nuw %struct.fileio, ptr %12, i32 0, i32 1
  %14 = load i32, ptr %13, align 8, !tbaa !9
  %15 = icmp slt i32 %14, 0
  br i1 %15, label %16, label %18

16:                                               ; preds = %3
  %17 = call ptr @err_closed()
  store ptr %17, ptr %4, align 8
  store i32 1, ptr %10, align 4
  br label %54

18:                                               ; preds = %3
  %19 = load ptr, ptr %5, align 8, !tbaa !15
  %20 = getelementptr inbounds nuw %struct.fileio, ptr %19, i32 0, i32 2
  %21 = load i8, ptr %20, align 4
  %22 = lshr i8 %21, 2
  %23 = and i8 %22, 1
  %24 = zext i8 %23 to i32
  %25 = icmp ne i32 %24, 0
  br i1 %25, label %31, label %26

26:                                               ; preds = %18
  call void @llvm.lifetime.start.p0(i64 8, ptr %11) #9
  %27 = load ptr, ptr %6, align 8, !tbaa !19
  %28 = call ptr @get_io_state_by_cls(ptr noundef %27)
  store ptr %28, ptr %11, align 8, !tbaa !48
  %29 = load ptr, ptr %11, align 8, !tbaa !48
  %30 = call ptr @err_mode(ptr noundef %29, ptr noundef @.str.40)
  store ptr %30, ptr %4, align 8
  store i32 1, ptr %10, align 4
  call void @llvm.lifetime.end.p0(i64 8, ptr %11) #9
  br label %54

31:                                               ; preds = %18
  %32 = load ptr, ptr %5, align 8, !tbaa !15
  %33 = getelementptr inbounds nuw %struct.fileio, ptr %32, i32 0, i32 1
  %34 = load i32, ptr %33, align 8, !tbaa !9
  %35 = load ptr, ptr %7, align 8, !tbaa !15
  %36 = getelementptr inbounds nuw %struct.Py_buffer, ptr %35, i32 0, i32 0
  %37 = load ptr, ptr %36, align 8, !tbaa !70
  %38 = load ptr, ptr %7, align 8, !tbaa !15
  %39 = getelementptr inbounds nuw %struct.Py_buffer, ptr %38, i32 0, i32 2
  %40 = load i64, ptr %39, align 8, !tbaa !71
  %41 = call i64 @_Py_write(i32 noundef %34, ptr noundef %37, i64 noundef %40)
  store i64 %41, ptr %8, align 8, !tbaa !35
  %42 = call ptr @__errno_location() #11
  %43 = load i32, ptr %42, align 4, !tbaa !31
  store i32 %43, ptr %9, align 4, !tbaa !31
  %44 = load i64, ptr %8, align 8, !tbaa !35
  %45 = icmp slt i64 %44, 0
  br i1 %45, label %46, label %51

46:                                               ; preds = %31
  %47 = load i32, ptr %9, align 4, !tbaa !31
  %48 = icmp eq i32 %47, 11
  br i1 %48, label %49, label %50

49:                                               ; preds = %46
  call void @PyErr_Clear()
  store ptr @_Py_NoneStruct, ptr %4, align 8
  store i32 1, ptr %10, align 4
  br label %54

50:                                               ; preds = %46
  store ptr null, ptr %4, align 8
  store i32 1, ptr %10, align 4
  br label %54

51:                                               ; preds = %31
  %52 = load i64, ptr %8, align 8, !tbaa !35
  %53 = call ptr @PyLong_FromSsize_t(i64 noundef %52)
  store ptr %53, ptr %4, align 8
  store i32 1, ptr %10, align 4
  br label %54

54:                                               ; preds = %51, %50, %49, %26, %16
  call void @llvm.lifetime.end.p0(i64 4, ptr %9) #9
  call void @llvm.lifetime.end.p0(i64 8, ptr %8) #9
  %55 = load ptr, ptr %4, align 8
  ret ptr %55
}

; Function Attrs: nounwind uwtable
define internal ptr @_io_FileIO_write(ptr noundef %0, ptr noundef %1, ptr noundef %2, i64 noundef %3, ptr noundef %4) #0 {
  %6 = alloca ptr, align 8
  %7 = alloca ptr, align 8
  %8 = alloca ptr, align 8
  %9 = alloca i64, align 8
  %10 = alloca ptr, align 8
  %11 = alloca ptr, align 8
  %12 = alloca [1 x ptr], align 8
  %13 = alloca %struct.Py_buffer, align 8
  store ptr %0, ptr %6, align 8, !tbaa !4
  store ptr %1, ptr %7, align 8, !tbaa !19
  store ptr %2, ptr %8, align 8, !tbaa !33
  store i64 %3, ptr %9, align 8, !tbaa !35
  store ptr %4, ptr %10, align 8, !tbaa !4
  call void @llvm.lifetime.start.p0(i64 8, ptr %11) #9
  store ptr null, ptr %11, align 8, !tbaa !4
  call void @llvm.lifetime.start.p0(i64 8, ptr %12) #9
  call void @llvm.lifetime.start.p0(i64 80, ptr %13) #9
  call void @llvm.memset.p0.i64(ptr align 8 %13, i8 0, i64 80, i1 false)
  %14 = load ptr, ptr %10, align 8, !tbaa !4
  %15 = icmp eq ptr %14, null
  br i1 %15, label %16, label %27

16:                                               ; preds = %5
  %17 = load i64, ptr %9, align 8, !tbaa !35
  %18 = icmp sle i64 1, %17
  br i1 %18, label %19, label %27

19:                                               ; preds = %16
  %20 = load i64, ptr %9, align 8, !tbaa !35
  %21 = icmp sle i64 %20, 1
  br i1 %21, label %22, label %27

22:                                               ; preds = %19
  %23 = load ptr, ptr %8, align 8, !tbaa !33
  %24 = icmp ne ptr %23, null
  br i1 %24, label %25, label %27

25:                                               ; preds = %22
  %26 = load ptr, ptr %8, align 8, !tbaa !33
  br label %33

27:                                               ; preds = %22, %19, %16, %5
  %28 = load ptr, ptr %8, align 8, !tbaa !33
  %29 = load i64, ptr %9, align 8, !tbaa !35
  %30 = load ptr, ptr %10, align 8, !tbaa !4
  %31 = getelementptr inbounds [1 x ptr], ptr %12, i64 0, i64 0
  %32 = call ptr @_PyArg_UnpackKeywords(ptr noundef %28, i64 noundef %29, ptr noundef null, ptr noundef %30, ptr noundef @_io_FileIO_write._parser, i32 noundef 1, i32 noundef 1, i32 noundef 0, i32 noundef 0, ptr noundef %31)
  br label %33

33:                                               ; preds = %27, %25
  %34 = phi ptr [ %26, %25 ], [ %32, %27 ]
  store ptr %34, ptr %8, align 8, !tbaa !33
  %35 = load ptr, ptr %8, align 8, !tbaa !33
  %36 = icmp ne ptr %35, null
  br i1 %36, label %38, label %37

37:                                               ; preds = %33
  br label %49

38:                                               ; preds = %33
  %39 = load ptr, ptr %8, align 8, !tbaa !33
  %40 = getelementptr ptr, ptr %39, i64 0
  %41 = load ptr, ptr %40, align 8, !tbaa !4
  %42 = call i32 @PyObject_GetBuffer(ptr noundef %41, ptr noundef %13, i32 noundef 0)
  %43 = icmp ne i32 %42, 0
  br i1 %43, label %44, label %45

44:                                               ; preds = %38
  br label %49

45:                                               ; preds = %38
  %46 = load ptr, ptr %6, align 8, !tbaa !4
  %47 = load ptr, ptr %7, align 8, !tbaa !19
  %48 = call ptr @_io_FileIO_write_impl(ptr noundef %46, ptr noundef %47, ptr noundef %13)
  store ptr %48, ptr %11, align 8, !tbaa !4
  br label %49

49:                                               ; preds = %45, %44, %37
  %50 = getelementptr inbounds nuw %struct.Py_buffer, ptr %13, i32 0, i32 1
  %51 = load ptr, ptr %50, align 8, !tbaa !42
  %52 = icmp ne ptr %51, null
  br i1 %52, label %53, label %54

53:                                               ; preds = %49
  call void @PyBuffer_Release(ptr noundef %13)
  br label %54

54:                                               ; preds = %53, %49
  %55 = load ptr, ptr %11, align 8, !tbaa !4
  call void @llvm.lifetime.end.p0(i64 80, ptr %13) #9
  call void @llvm.lifetime.end.p0(i64 8, ptr %12) #9
  call void @llvm.lifetime.end.p0(i64 8, ptr %11) #9
  ret ptr %55
}