; Function Attrs: nounwind uwtable
define internal ptr @_io_FileIO_write(ptr noundef readonly captures(none) %0, ptr noundef readonly captures(none) %1, ptr noundef %2, i64 noundef %3, ptr noundef %4) #1 {
  %6 = alloca [1 x ptr], align 8
  %7 = alloca %struct.Py_buffer, align 8
  call void @llvm.lifetime.start.p0(i64 8, ptr nonnull %6) #10
  call void @llvm.lifetime.start.p0(i64 80, ptr nonnull %7) #10
  call void @llvm.memset.p0.i64(ptr noundef nonnull align 8 dereferenceable(80) %7, i8 0, i64 80, i1 false)
  %8 = icmp eq ptr %4, null
  %9 = icmp eq i64 %3, 1
  %or.cond3 = and i1 %9, %8
  %10 = icmp ne ptr %2, null
  %or.cond5 = and i1 %10, %or.cond3
  br i1 %or.cond5, label %.thread, label %11

11:                                               ; preds = %5
  %12 = call ptr @_PyArg_UnpackKeywords(ptr noundef %2, i64 noundef %3, ptr noundef null, ptr noundef %4, ptr noundef nonnull @_io_FileIO_write._parser, i32 noundef 1, i32 noundef 1, i32 noundef 0, i32 noundef 0, ptr noundef nonnull %6) #10
  %.not = icmp eq ptr %12, null
  br i1 %.not, label %_io_FileIO_write_impl.exit, label %.thread

.thread:                                          ; preds = %5, %11
  %13 = phi ptr [ %12, %11 ], [ %2, %5 ]
  %14 = load ptr, ptr %13, align 8, !tbaa !21
  %15 = call i32 @PyObject_GetBuffer(ptr noundef %14, ptr noundef nonnull %7, i32 noundef 0) #10
  %.not19 = icmp eq i32 %15, 0
  br i1 %.not19, label %16, label %_io_FileIO_write_impl.exit

16:                                               ; preds = %.thread
  %.val = load ptr, ptr %7, align 8
  %17 = getelementptr inbounds nuw i8, ptr %7, i64 16
  %.val21 = load i64, ptr %17, align 8
  %18 = getelementptr inbounds nuw i8, ptr %0, i64 16
  %19 = load i32, ptr %18, align 8, !tbaa !4
  %20 = icmp slt i32 %19, 0
  br i1 %20, label %21, label %23

21:                                               ; preds = %16
  %22 = load ptr, ptr @PyExc_ValueError, align 8, !tbaa !21
  call void @PyErr_SetString(ptr noundef %22, ptr noundef nonnull @.str.35) #10
  br label %_io_FileIO_write_impl.exit

23:                                               ; preds = %16
  %24 = getelementptr inbounds nuw i8, ptr %0, i64 20
  %25 = load i8, ptr %24, align 4
  %26 = and i8 %25, 4
  %.not.i = icmp eq i8 %26, 0
  br i1 %.not.i, label %27, label %32

27:                                               ; preds = %23
  %28 = getelementptr i8, ptr %1, i64 888
  %.val.i = load ptr, ptr %28, align 8, !tbaa !49
  %29 = getelementptr i8, ptr %.val.i, i64 32
  %.val.val.i = load ptr, ptr %29, align 8, !tbaa !57
  %30 = getelementptr i8, ptr %.val.val.i, i64 8
  %.val12.i = load ptr, ptr %30, align 8, !tbaa !60
  %31 = call ptr (ptr, ptr, ...) @PyErr_Format(ptr noundef %.val12.i, ptr noundef nonnull @.str.36, ptr noundef nonnull @.str.40) #10
  br label %_io_FileIO_write_impl.exit

32:                                               ; preds = %23
  %33 = call i64 @_Py_write(i32 noundef %19, ptr noundef %.val, i64 noundef %.val21) #10
  %34 = icmp slt i64 %33, 0
  br i1 %34, label %35, label %40

35:                                               ; preds = %32
  %36 = tail call ptr @__errno_location() #12
  %37 = load i32, ptr %36, align 4, !tbaa !43
  %38 = icmp eq i32 %37, 11
  br i1 %38, label %39, label %_io_FileIO_write_impl.exit

39:                                               ; preds = %35
  call void @PyErr_Clear() #10
  br label %_io_FileIO_write_impl.exit

40:                                               ; preds = %32
  %41 = call ptr @PyLong_FromSsize_t(i64 noundef %33) #10
  br label %_io_FileIO_write_impl.exit

_io_FileIO_write_impl.exit:                       ; preds = %40, %39, %35, %27, %21, %.thread, %11
  %.0 = phi ptr [ null, %.thread ], [ null, %11 ], [ null, %21 ], [ @_Py_NoneStruct, %39 ], [ %41, %40 ], [ %31, %27 ], [ null, %35 ]
  %42 = getelementptr inbounds nuw i8, ptr %7, i64 8
  %43 = load ptr, ptr %42, align 8, !tbaa !62
  %.not20 = icmp eq ptr %43, null
  br i1 %.not20, label %45, label %44

44:                                               ; preds = %_io_FileIO_write_impl.exit
  call void @PyBuffer_Release(ptr noundef nonnull %7) #10
  br label %45

45:                                               ; preds = %44, %_io_FileIO_write_impl.exit
  call void @llvm.lifetime.end.p0(i64 80, ptr nonnull %7) #10
  call void @llvm.lifetime.end.p0(i64 8, ptr nonnull %6) #10
  ret ptr %.0
}